target datalayout = "e-m:e-p270:32:32-p271:32:32-p272:64:64-i64:64-i128:128-f80:128-n8:16:32:64-S128"
target triple = "x86_64-pc-linux-gnu"

; Function Attrs: mustprogress nounwind uwtable
define void @_ZN6Unpack8CorrHuffEPtPh(ptr noundef nonnull align 8 dereferenceable(59688) %0, ptr noundef %1, ptr noundef %2) #1 align 2 {
  %4 = alloca ptr, align 8
  %5 = alloca ptr, align 8
  %6 = alloca ptr, align 8
  %7 = alloca i32, align 4
  %8 = alloca i32, align 4
  store ptr %0, ptr %4, align 8
  store ptr %1, ptr %5, align 8
  store ptr %2, ptr %6, align 8
  store i32 7, ptr %7, align 4
  br label %9

9:                                                ; preds = %31, %3
  %10 = load i32, ptr %7, align 4
  %11 = icmp sge i32 %10, 0
  br i1 %11, label %12, label %34

12:                                               ; preds = %9
  store i32 0, ptr %8, align 4
  br label %13

13:                                               ; preds = %25, %12
  %14 = load i32, ptr %8, align 4
  %15 = icmp slt i32 %14, 32
  br i1 %15, label %16, label %30

16:                                               ; preds = %13
  %17 = load ptr, ptr %5, align 8
  %18 = load i16, ptr %17, align 2
  %19 = zext i16 %18 to i32
  %20 = and i32 %19, -256
  %21 = load i32, ptr %7, align 4
  %22 = or i32 %20, %21
  %23 = trunc i32 %22 to i16
  %24 = load ptr, ptr %5, align 8
  store i16 %23, ptr %24, align 2
  br label %25

25:                                               ; preds = %16
  %26 = load i32, ptr %8, align 4
  %27 = add nsw i32 %26, 1
  store i32 %27, ptr %8, align 4
  %28 = load ptr, ptr %5, align 8
  %29 = getelementptr inbounds i16, ptr %28, i32 1
  store ptr %29, ptr %5, align 8
  br label %13, !llvm.loop !53

30:                                               ; preds = %13
  br label %31

31:                                               ; preds = %30
  %32 = load i32, ptr %7, align 4
  %33 = add nsw i32 %32, -1
  store i32 %33, ptr %7, align 4
  br label %9, !llvm.loop !54

34:                                               ; preds = %9
  %35 = load ptr, ptr %6, align 8
  call void @llvm.memset.p0.i64(ptr align 1 %35, i8 0, i64 256, i1 false)
  store i32 6, ptr %7, align 4
  br label %36

36:                                               ; preds = %48, %34
  %37 = load i32, ptr %7, align 4
  %38 = icmp sge i32 %37, 0
  br i1 %38, label %39, label %51

39:                                               ; preds = %36
  %40 = load i32, ptr %7, align 4
  %41 = sub nsw i32 7, %40
  %42 = mul nsw i32 %41, 32
  %43 = trunc i32 %42 to i8
  %44 = load ptr, ptr %6, align 8
  %45 = load i32, ptr %7, align 4
  %46 = sext i32 %45 to i64
  %47 = getelementptr inbounds i8, ptr %44, i64 %46
  store i8 %43, ptr %47, align 1
  br label %48

48:                                               ; preds = %39
  %49 = load i32, ptr %7, align 4
  %50 = add nsw i32 %49, -1
  store i32 %50, ptr %7, align 4
  br label %36, !llvm.loop !55

51:                                               ; preds = %36
  ret void
}