; Function Attrs: mustprogress nofree norecurse nosync nounwind memory(readwrite, inaccessiblemem: none) uwtable
define void @_ZN6Unpack8CorrHuffEPtPh(ptr nocapture noundef nonnull readnone align 8 dereferenceable(59688) %0, ptr nocapture noundef %1, ptr nocapture noundef writeonly %2) local_unnamed_addr #9 align 2 {
  br label %.preheader

.preheader:                                       ; preds = %3, %11
  %.01319 = phi i32 [ 7, %3 ], [ %12, %11 ]
  %.01418 = phi ptr [ %1, %3 ], [ %10, %11 ]
  %4 = trunc i32 %.01319 to i16
  br label %5

5:                                                ; preds = %.preheader, %5
  %.017 = phi i32 [ 0, %.preheader ], [ %9, %5 ]
  %.11516 = phi ptr [ %.01418, %.preheader ], [ %10, %5 ]
  %6 = load i16, ptr %.11516, align 2
  %7 = and i16 %6, -256
  %8 = or i16 %7, %4
  store i16 %8, ptr %.11516, align 2
  %9 = add nuw nsw i32 %.017, 1
  %10 = getelementptr inbounds i8, ptr %.11516, i64 2
  %exitcond.not = icmp eq i32 %9, 32
  br i1 %exitcond.not, label %11, label %5, !llvm.loop !43

11:                                               ; preds = %5
  %12 = add nsw i32 %.01319, -1
  %.not = icmp eq i32 %.01319, 0
  br i1 %.not, label %13, label %.preheader, !llvm.loop !44

13:                                               ; preds = %11
  tail call void @llvm.memset.p0.i64(ptr noundef nonnull align 1 dereferenceable(256) %2, i8 0, i64 256, i1 false)
  br label %14

14:                                               ; preds = %13, %14
  %indvars.iv = phi i64 [ 6, %13 ], [ %indvars.iv.next, %14 ]
  %.1.tr = trunc i64 %indvars.iv to i8
  %15 = shl i8 %.1.tr, 5
  %16 = sub nuw nsw i8 -32, %15
  %17 = getelementptr inbounds i8, ptr %2, i64 %indvars.iv
  store i8 %16, ptr %17, align 1
  %indvars.iv.next = add nsw i64 %indvars.iv, -1
  %.not22 = icmp eq i64 %indvars.iv, 0
  br i1 %.not22, label %18, label %14, !llvm.loop !45

18:                                               ; preds = %14
  ret void
}